; Function Attrs: inlinehint nounwind uwtable
define internal fastcc ptr @_PyObject_CallNoArgs() unnamed_addr #5 {
  %1 = tail call align 8 ptr @llvm.threadlocal.address.p0(ptr align 8 @_Py_tss_tstate)
  %2 = load ptr, ptr %1, align 8, !tbaa !116
  %PyFrozenSet_Type.val.i.i = load ptr, ptr getelementptr inbounds nuw (i8, ptr @PyFrozenSet_Type, i64 8), align 8, !tbaa !30
  %3 = getelementptr i8, ptr %PyFrozenSet_Type.val.i.i, i64 168
  %.val.i.i = load i64, ptr %3, align 8, !tbaa !153
  %4 = and i64 %.val.i.i, 2048
  %.not.i.i = icmp eq i64 %4, 0
  br i1 %.not.i.i, label %_PyVectorcall_FunctionInline.exit.thread.i, label %_PyVectorcall_FunctionInline.exit.i

_PyVectorcall_FunctionInline.exit.i:              ; preds = %0
  %5 = getelementptr inbounds nuw i8, ptr %PyFrozenSet_Type.val.i.i, i64 56
  %6 = load i64, ptr %5, align 8, !tbaa !158
  %7 = getelementptr i8, ptr @PyFrozenSet_Type, i64 %6
  %.0.copyload.i.i = load ptr, ptr %7, align 1
  %8 = icmp eq ptr %.0.copyload.i.i, null
  br i1 %8, label %_PyVectorcall_FunctionInline.exit.thread.i, label %10

_PyVectorcall_FunctionInline.exit.thread.i:       ; preds = %_PyVectorcall_FunctionInline.exit.i, %0
  %9 = tail call ptr @_PyObject_MakeTpCall(ptr noundef %2, ptr noundef nonnull @PyFrozenSet_Type, ptr noundef null, i64 noundef 0, ptr noundef null) #11
  br label %_PyObject_VectorcallTstate.exit

10:                                               ; preds = %_PyVectorcall_FunctionInline.exit.i
  %11 = tail call ptr %.0.copyload.i.i(ptr noundef nonnull @PyFrozenSet_Type, ptr noundef null, i64 noundef 0, ptr noundef null) #11
  %12 = tail call ptr @_Py_CheckFunctionResult(ptr noundef %2, ptr noundef nonnull @PyFrozenSet_Type, ptr noundef %11, ptr noundef null) #11
  br label %_PyObject_VectorcallTstate.exit

_PyObject_VectorcallTstate.exit:                  ; preds = %_PyVectorcall_FunctionInline.exit.thread.i, %10
  %.0.i = phi ptr [ %9, %_PyVectorcall_FunctionInline.exit.thread.i ], [ %12, %10 ]
  ret ptr %.0.i
}